target datalayout = "e-m:e-p270:32:32-p271:32:32-p272:64:64-i64:64-i128:128-f80:128-n8:16:32:64-S128"
target triple = "x86_64-unknown-linux-gnu"

%"class.datalog::rule_unifier" = type <{ ptr, ptr, ptr, %"class.datalog::mk_interp_tail_simplifier", %class.substitution, %class.unifier, i8, i8, [2 x i8], [2 x i32], [4 x i8] }>
%"class.datalog::mk_interp_tail_simplifier" = type { %"class.datalog::rule_transformer::plugin", ptr, ptr, ptr, %class.arith_util, %"class.datalog::mk_interp_tail_simplifier::rule_substitution", %class.ptr_vector, %class.obj_hashtable, %class.ref_vector.19, %class.ref_vector, %class.ref_vector, %class.svector.24, ptr, ptr }
%"class.datalog::rule_transformer::plugin" = type { ptr, i32, i8, ptr }
%class.arith_util = type { ptr, ptr }
%"class.datalog::mk_interp_tail_simplifier::rule_substitution" = type { ptr, ptr, %class.substitution, %class.unifier, %class.obj_ref, %class.ref_vector.19, %class.svector.24, ptr }
%class.obj_ref = type { ptr, ptr }
%class.ptr_vector = type { %class.vector.2 }
%class.vector.2 = type { ptr }
%class.obj_hashtable = type { %class.core_hashtable.base, [4 x i8] }
%class.core_hashtable.base = type <{ ptr, i32, i32, i32 }>
%class.ref_vector.19 = type { %class.ref_vector_core.20 }
%class.ref_vector_core.20 = type { %class.ref_manager_wrapper.21, %class.ptr_vector.22 }
%class.ref_manager_wrapper.21 = type { ptr }
%class.ptr_vector.22 = type { %class.vector.23 }
%class.vector.23 = type { ptr }
%class.ref_vector = type { %class.ref_vector_core }
%class.ref_vector_core = type { %class.ref_manager_wrapper, %class.ptr_vector }
%class.ref_manager_wrapper = type { ptr }
%class.svector.24 = type { %class.vector.25 }
%class.vector.25 = type { ptr }
%class.substitution = type <{ ptr, %class.var_offset_map, %class.svector.0, %class.ref_vector, %class.svector.3, %class.svector.5, %class.expr_offset_map, %class.ref_vector, %class.expr_offset_map.8, i32, [4 x i8] }>
%class.var_offset_map = type <{ %class.svector, i32, i32, i32, [4 x i8] }>
%class.svector = type { %class.vector }
%class.vector = type { ptr }
%class.svector.0 = type { %class.vector.1 }
%class.vector.1 = type { ptr }
%class.svector.3 = type { %class.vector.4 }
%class.vector.4 = type { ptr }
%class.svector.5 = type { %class.vector.6 }
%class.vector.6 = type { ptr }
%class.expr_offset_map = type <{ %class.vector.7, i32, [4 x i8] }>
%class.vector.7 = type { ptr }
%class.expr_offset_map.8 = type <{ %class.vector.9, i32, [4 x i8] }>
%class.vector.9 = type { ptr }
%class.unifier = type <{ ptr, ptr, %class.svector.11, %class.expr_offset_map.13, %class.expr_offset_map.16, i8, [7 x i8] }>
%class.svector.11 = type { %class.vector.12 }
%class.vector.12 = type { ptr }
%class.expr_offset_map.13 = type <{ %class.vector.14, i32, [4 x i8] }>
%class.vector.14 = type { ptr }
%class.expr_offset_map.16 = type <{ %class.vector.17, i32, [4 x i8] }>
%class.vector.17 = type { ptr }
%class.obj_map.55 = type { %class.core_hashtable.56 }
%class.core_hashtable.56 = type <{ ptr, i32, i32, i32, [4 x i8] }>
%class.expr_sparse_mark = type { %class.obj_hashtable }
%"class.datalog::rule" = type { %"class.datalog::accounted_object.base", ptr, ptr, i32, i32, i32, i32, %class.symbol, [0 x ptr] }
%"class.datalog::accounted_object.base" = type <{ ptr, ptr, %"struct.datalog::costs", %"struct.datalog::costs", i8 }>
%"struct.datalog::costs" = type { i32, i32 }
%class.symbol = type { ptr }
%"class.datalog::mk_rule_inliner" = type { %"class.datalog::rule_transformer::plugin", ptr, ptr, ptr, ptr, %class.ref_vector.155, %class.obj_hashtable.140, %class.obj_hashtable.140, %class.obj_hashtable.140, %class.ast_counter, %class.ast_counter, %class.ast_counter, %"class.datalog::rule_set", ptr, %"class.datalog::rule_unifier", %class.substitution_tree, %class.substitution_tree, %class.substitution, %"class.datalog::mk_rule_inliner::visitor", %"class.datalog::mk_rule_inliner::visitor" }
%class.ref_vector.155 = type { %class.ref_vector_core.156 }
%class.ref_vector_core.156 = type { %class.ref_manager_wrapper.157, %class.ptr_vector.119 }
%class.ref_manager_wrapper.157 = type { ptr }
%class.ptr_vector.119 = type { %class.vector.120 }
%class.vector.120 = type { ptr }
%class.obj_hashtable.140 = type { %class.core_hashtable.base.144, [4 x i8] }
%class.core_hashtable.base.144 = type <{ ptr, i32, i32, i32 }>
%class.ast_counter = type { %class.obj_map.177 }
%class.obj_map.177 = type { %class.core_hashtable.178 }
%class.core_hashtable.178 = type <{ ptr, i32, i32, i32, [4 x i8] }>
%"class.datalog::rule_set" = type { ptr, ptr, %class.ref_vector.155, %class.obj_map.158, %"class.datalog::rule_dependencies", %class.scoped_ptr.168, %class.obj_hashtable.140, %class.obj_map.55, %class.obj_map.55, %class.ref_vector.169, %class.ptr_vector.119 }
%class.obj_map.158 = type { %class.core_hashtable.159 }
%class.core_hashtable.159 = type <{ ptr, i32, i32, i32, [4 x i8] }>
%"class.datalog::rule_dependencies" = type { %class.obj_map.163, ptr, %class.ptr_vector, %class.expr_sparse_mark, %class.obj_hashtable.140 }
%class.obj_map.163 = type { %class.core_hashtable.164 }
%class.core_hashtable.164 = type <{ ptr, i32, i32, i32, [4 x i8] }>
%class.scoped_ptr.168 = type { ptr }
%class.ref_vector.169 = type { %class.ref_vector_core.170 }
%class.ref_vector_core.170 = type { %class.ref_manager_wrapper.171, %class.ptr_vector.172 }
%class.ref_manager_wrapper.171 = type { ptr }
%class.ptr_vector.172 = type { %class.vector.173 }
%class.vector.173 = type { ptr }
%class.substitution_tree = type { ptr, %class.ptr_vector.182, i32, %class.ptr_vector, i32, %class.ptr_vector.184, i32, %class.bit_vector, %class.svector.3, %class.svector.186, %class.svector.186, ptr, %class.ptr_vector.182, i32, i32, i32, %class.svector.11 }
%class.ptr_vector.184 = type { %class.vector.185 }
%class.vector.185 = type { ptr }
%class.bit_vector = type { i32, i32, ptr }
%class.svector.186 = type { %class.vector.187 }
%class.vector.187 = type { ptr }
%class.ptr_vector.182 = type { %class.vector.183 }
%class.vector.183 = type { ptr }
%"class.datalog::mk_rule_inliner::visitor" = type { %class.st_visitor, ptr, %class.svector.3, %class.svector.24, %class.svector.24, %class.obj_map.188 }
%class.st_visitor = type { ptr, ptr }
%class.obj_map.188 = type { %class.core_hashtable.189 }
%class.core_hashtable.189 = type <{ ptr, i32, i32, i32, [4 x i8] }>
%class.ast = type { i32, i24, i32, i32 }
%class.app = type { %class.expr, ptr, i32, [0 x ptr] }
%class.expr = type { %class.ast }

@.str.1 = private unnamed_addr constant [125 x i8] c"generated/home/dtcxzyw/WorkSpace/Projects/compilers/llvm-opt-benchmark/bench/z3/z3/src/muz/transforms/dl_mk_rule_inliner.cpp\00", align 1
@.str.2 = private unnamed_addr constant [32 x i8] c"Failed to verify: res->close()\0A\00", align 1

; Function Attrs: mustprogress nounwind uwtable
define linkonce_odr hidden noundef i32 @_ZNK6vectorIPN7datalog4ruleELb0EjE4sizeEv(ptr noundef nonnull align 8 dereferenceable(8) %this) #5 comdat align 2 {
entry:
  %retval = alloca i32, align 4
  %this.addr = alloca ptr, align 8
  store ptr %this, ptr %this.addr, align 8
  %this1 = load ptr, ptr %this.addr, align 8
  %m_data = getelementptr inbounds %class.vector.120, ptr %this1, i32 0, i32 0
  %0 = load ptr, ptr %m_data, align 8
  %cmp = icmp eq ptr %0, null
  br i1 %cmp, label %if.then, label %if.end

if.then:                                          ; preds = %entry
  store i32 0, ptr %retval, align 4
  br label %return

if.end:                                           ; preds = %entry
  %m_data2 = getelementptr inbounds %class.vector.120, ptr %this1, i32 0, i32 0
  %1 = load ptr, ptr %m_data2, align 8
  %arrayidx = getelementptr inbounds i32, ptr %1, i64 -1
  %2 = load i32, ptr %arrayidx, align 4
  store i32 %2, ptr %retval, align 4
  br label %return

return:                                           ; preds = %if.end, %if.then
  %3 = load i32, ptr %retval, align 4
  ret i32 %3
}

; Function Attrs: mustprogress nounwind uwtable
define linkonce_odr hidden noundef ptr @_ZNK6vectorIPN7datalog4ruleELb0EjE4dataEv(ptr noundef nonnull align 8 dereferenceable(8) %this) #5 comdat align 2 {
entry:
  %this.addr = alloca ptr, align 8
  store ptr %this, ptr %this.addr, align 8
  %this1 = load ptr, ptr %this.addr, align 8
  %m_data = getelementptr inbounds %class.vector.120, ptr %this1, i32 0, i32 0
  %0 = load ptr, ptr %m_data, align 8
  ret ptr %0
}

; Function Attrs: mustprogress nounwind uwtable
define linkonce_odr hidden noundef ptr @_ZNK3app8get_declEv(ptr noundef nonnull align 8 dereferenceable(32) %this) #5 comdat align 2 {
entry:
  %this.addr = alloca ptr, align 8
  store ptr %this, ptr %this.addr, align 8
  %this1 = load ptr, ptr %this.addr, align 8
  %m_decl = getelementptr inbounds %class.app, ptr %this1, i32 0, i32 1
  %0 = load ptr, ptr %m_decl, align 8
  ret ptr %0
}

; Function Attrs: mustprogress nounwind uwtable
define linkonce_odr hidden noundef ptr @_ZNK7datalog4rule8get_headEv(ptr noundef nonnull align 8 dereferenceable(80) %this) #5 comdat align 2 {
entry:
  %this.addr = alloca ptr, align 8
  store ptr %this, ptr %this.addr, align 8
  %this1 = load ptr, ptr %this.addr, align 8
  %m_head = getelementptr inbounds %"class.datalog::rule", ptr %this1, i32 0, i32 1
  %0 = load ptr, ptr %m_head, align 8
  ret ptr %0
}

; Function Attrs: mustprogress uwtable
define linkonce_odr hidden noundef i32 @_ZNK15ref_vector_coreIN7datalog4ruleE19ref_manager_wrapperIS1_NS0_12rule_managerEEE4sizeEv(ptr noundef nonnull align 8 dereferenceable(16) %this) #4 comdat align 2 {
entry:
  %this.addr = alloca ptr, align 8
  store ptr %this, ptr %this.addr, align 8
  %this1 = load ptr, ptr %this.addr, align 8
  %m_nodes = getelementptr inbounds %class.ref_vector_core.156, ptr %this1, i32 0, i32 1
  %call = call noundef i32 @_ZNK6vectorIPN7datalog4ruleELb0EjE4sizeEv(ptr noundef nonnull align 8 dereferenceable(8) %m_nodes)
  ret i32 %call
}

; Function Attrs: mustprogress uwtable
define linkonce_odr hidden noundef ptr @_ZNK15ref_vector_coreIN7datalog4ruleE19ref_manager_wrapperIS1_NS0_12rule_managerEEE4dataEv(ptr noundef nonnull align 8 dereferenceable(16) %this) #4 comdat align 2 {
entry:
  %this.addr = alloca ptr, align 8
  store ptr %this, ptr %this.addr, align 8
  %this1 = load ptr, ptr %this.addr, align 8
  %m_nodes = getelementptr inbounds %class.ref_vector_core.156, ptr %this1, i32 0, i32 1
  %call = call noundef ptr @_ZNK6vectorIPN7datalog4ruleELb0EjE4dataEv(ptr noundef nonnull align 8 dereferenceable(8) %m_nodes)
  ret ptr %call
}

; Function Attrs: mustprogress uwtable
define linkonce_odr hidden noundef ptr @_ZNK7datalog4rule8get_declEv(ptr noundef nonnull align 8 dereferenceable(80) %this) #4 comdat align 2 {
entry:
  %this.addr = alloca ptr, align 8
  store ptr %this, ptr %this.addr, align 8
  %this1 = load ptr, ptr %this.addr, align 8
  %call = call noundef ptr @_ZNK7datalog4rule8get_headEv(ptr noundef nonnull align 8 dereferenceable(80) %this1)
  %call2 = call noundef ptr @_ZNK3app8get_declEv(ptr noundef nonnull align 8 dereferenceable(32) %call)
  ret ptr %call2
}

; Function Attrs: mustprogress uwtable
define linkonce_odr hidden noundef ptr @_ZNK7datalog8rule_set3endEv(ptr noundef nonnull align 8 dereferenceable(248) %this) #4 comdat align 2 {
entry:
  %this.addr = alloca ptr, align 8
  store ptr %this, ptr %this.addr, align 8
  %this1 = load ptr, ptr %this.addr, align 8
  %m_rules = getelementptr inbounds %"class.datalog::rule_set", ptr %this1, i32 0, i32 2
  %call = call noundef ptr @_ZNK15ref_vector_coreIN7datalog4ruleE19ref_manager_wrapperIS1_NS0_12rule_managerEEE4dataEv(ptr noundef nonnull align 8 dereferenceable(16) %m_rules)
  %m_rules2 = getelementptr inbounds %"class.datalog::rule_set", ptr %this1, i32 0, i32 2
  %call3 = call noundef i32 @_ZNK15ref_vector_coreIN7datalog4ruleE19ref_manager_wrapperIS1_NS0_12rule_managerEEE4sizeEv(ptr noundef nonnull align 8 dereferenceable(16) %m_rules2)
  %idx.ext = zext i32 %call3 to i64
  %add.ptr = getelementptr inbounds ptr, ptr %call, i64 %idx.ext
  ret ptr %add.ptr
}

; Function Attrs: mustprogress uwtable
define linkonce_odr hidden noundef ptr @_ZNK7datalog8rule_set5beginEv(ptr noundef nonnull align 8 dereferenceable(248) %this) #4 comdat align 2 {
entry:
  %this.addr = alloca ptr, align 8
  store ptr %this, ptr %this.addr, align 8
  %this1 = load ptr, ptr %this.addr, align 8
  %m_rules = getelementptr inbounds %"class.datalog::rule_set", ptr %this1, i32 0, i32 2
  %call = call noundef ptr @_ZNK15ref_vector_coreIN7datalog4ruleE19ref_manager_wrapperIS1_NS0_12rule_managerEEE4dataEv(ptr noundef nonnull align 8 dereferenceable(16) %m_rules)
  ret ptr %call
}

; Function Attrs: mustprogress uwtable
define hidden noundef ptr @_ZN7datalog15mk_rule_inliner23create_allowed_rule_setERKNS_8rule_setE(ptr noundef nonnull align 8 dereferenceable(1672) %this, ptr noundef nonnull align 8 dereferenceable(248) %orig) #4 align 2 {
entry:
  %this.addr = alloca ptr, align 8
  %orig.addr = alloca ptr, align 8
  %res = alloca ptr, align 8
  %__range1 = alloca ptr, align 8
  %__begin1 = alloca ptr, align 8
  %__end1 = alloca ptr, align 8
  %r = alloca ptr, align 8
  store ptr %this, ptr %this.addr, align 8
  store ptr %orig, ptr %orig.addr, align 8
  %this1 = load ptr, ptr %this.addr, align 8
  %call = call noalias noundef ptr @_ZN6memory8allocateEm(i64 noundef 248)
  %m_context = getelementptr inbounds %"class.datalog::mk_rule_inliner", ptr %this1, i32 0, i32 3
  %0 = load ptr, ptr %m_context, align 8
  call void @_ZN7datalog8rule_setC1ERNS_7contextE(ptr noundef nonnull align 8 dereferenceable(248) %call, ptr noundef nonnull align 8 dereferenceable(3556) %0)
  store ptr %call, ptr %res, align 8
  %1 = load ptr, ptr %orig.addr, align 8
  store ptr %1, ptr %__range1, align 8
  %2 = load ptr, ptr %__range1, align 8
  %call2 = call noundef ptr @_ZNK7datalog8rule_set5beginEv(ptr noundef nonnull align 8 dereferenceable(248) %2)
  store ptr %call2, ptr %__begin1, align 8
  %3 = load ptr, ptr %__range1, align 8
  %call3 = call noundef ptr @_ZNK7datalog8rule_set3endEv(ptr noundef nonnull align 8 dereferenceable(248) %3)
  store ptr %call3, ptr %__end1, align 8
  br label %for.cond

for.cond:                                         ; preds = %for.inc, %entry
  %4 = load ptr, ptr %__begin1, align 8
  %5 = load ptr, ptr %__end1, align 8
  %cmp = icmp ne ptr %4, %5
  br i1 %cmp, label %for.body, label %for.end

for.body:                                         ; preds = %for.cond
  %6 = load ptr, ptr %__begin1, align 8
  %7 = load ptr, ptr %6, align 8
  store ptr %7, ptr %r, align 8
  %8 = load ptr, ptr %orig.addr, align 8
  %9 = load ptr, ptr %r, align 8
  %call4 = call noundef ptr @_ZNK7datalog4rule8get_declEv(ptr noundef nonnull align 8 dereferenceable(80) %9)
  %call5 = call noundef zeroext i1 @_ZN7datalog15mk_rule_inliner16inlining_allowedERKNS_8rule_setEP9func_decl(ptr noundef nonnull align 8 dereferenceable(1672) %this1, ptr noundef nonnull align 8 dereferenceable(248) %8, ptr noundef %call4)
  br i1 %call5, label %if.then, label %if.end

if.then:                                          ; preds = %for.body
  %10 = load ptr, ptr %res, align 8
  %11 = load ptr, ptr %r, align 8
  call void @_ZN7datalog8rule_set8add_ruleEPNS_4ruleE(ptr noundef nonnull align 8 dereferenceable(248) %10, ptr noundef %11)
  br label %if.end

if.end:                                           ; preds = %if.then, %for.body
  br label %for.inc

for.inc:                                          ; preds = %if.end
  %12 = load ptr, ptr %__begin1, align 8
  %incdec.ptr = getelementptr inbounds ptr, ptr %12, i32 1
  store ptr %incdec.ptr, ptr %__begin1, align 8
  br label %for.cond

for.end:                                          ; preds = %for.cond
  %13 = load ptr, ptr %res, align 8
  %call6 = call noundef zeroext i1 @_ZN7datalog8rule_set5closeEv(ptr noundef nonnull align 8 dereferenceable(248) %13)
  br i1 %call6, label %if.end8, label %if.then7

if.then7:                                         ; preds = %for.end
  call void @_Z26notify_assertion_violationPKciS0_(ptr noundef @.str.1, i32 noundef 271, ptr noundef @.str.2)
  call void @exit(i32 noundef 114) #14
  unreachable

if.end8:                                          ; preds = %for.end
  %14 = load ptr, ptr %res, align 8
  ret ptr %14
}