; Function Attrs: mustprogress uwtable
define hidden noundef ptr @_ZN7datalog15mk_rule_inliner23create_allowed_rule_setERKNS_8rule_setE(ptr noundef nonnull align 8 dereferenceable(1672) %this, ptr nocapture noundef nonnull readonly align 8 dereferenceable(248) %orig) local_unnamed_addr #3 align 2 {
entry:
  %call = tail call noalias noundef ptr @_ZN6memory8allocateEm(i64 noundef 248)
  %m_context = getelementptr inbounds i8, ptr %this, i64 40
  %0 = load ptr, ptr %m_context, align 8
  tail call void @_ZN7datalog8rule_setC1ERNS_7contextE(ptr noundef nonnull align 8 dereferenceable(248) %call, ptr noundef nonnull align 8 dereferenceable(3556) %0)
  %m_nodes.i.i = getelementptr inbounds i8, ptr %orig, i64 24
  %1 = load ptr, ptr %m_nodes.i.i, align 8
  %cmp.i.i.i = icmp eq ptr %1, null
  br i1 %cmp.i.i.i, label %for.end, label %_ZNK7datalog8rule_set3endEv.exit

_ZNK7datalog8rule_set3endEv.exit:                 ; preds = %entry
  %arrayidx.i.i.i = getelementptr inbounds i8, ptr %1, i64 -4
  %2 = load i32, ptr %arrayidx.i.i.i, align 4
  %3 = zext i32 %2 to i64
  %add.ptr.i = getelementptr inbounds ptr, ptr %1, i64 %3
  %cmp.not9 = icmp eq i32 %2, 0
  br i1 %cmp.not9, label %for.end, label %for.body

for.body:                                         ; preds = %_ZNK7datalog8rule_set3endEv.exit, %for.inc
  %__begin1.010 = phi ptr [ %incdec.ptr, %for.inc ], [ %1, %_ZNK7datalog8rule_set3endEv.exit ]
  %4 = load ptr, ptr %__begin1.010, align 8
  %m_head.i.i = getelementptr inbounds i8, ptr %4, i64 40
  %5 = load ptr, ptr %m_head.i.i, align 8
  %m_decl.i.i = getelementptr inbounds i8, ptr %5, i64 16
  %6 = load ptr, ptr %m_decl.i.i, align 8
  %call5 = tail call noundef zeroext i1 @_ZN7datalog15mk_rule_inliner16inlining_allowedERKNS_8rule_setEP9func_decl(ptr noundef nonnull align 8 dereferenceable(1672) %this, ptr noundef nonnull align 8 dereferenceable(248) %orig, ptr noundef %6)
  br i1 %call5, label %if.then, label %for.inc

if.then:                                          ; preds = %for.body
  tail call void @_ZN7datalog8rule_set8add_ruleEPNS_4ruleE(ptr noundef nonnull align 8 dereferenceable(248) %call, ptr noundef nonnull %4)
  br label %for.inc

for.inc:                                          ; preds = %for.body, %if.then
  %incdec.ptr = getelementptr inbounds i8, ptr %__begin1.010, i64 8
  %cmp.not = icmp eq ptr %incdec.ptr, %add.ptr.i
  br i1 %cmp.not, label %for.end, label %for.body

for.end:                                          ; preds = %for.inc, %entry, %_ZNK7datalog8rule_set3endEv.exit
  %call6 = tail call noundef zeroext i1 @_ZN7datalog8rule_set5closeEv(ptr noundef nonnull align 8 dereferenceable(248) %call)
  br i1 %call6, label %if.end8, label %if.then7

if.then7:                                         ; preds = %for.end
  tail call void @_Z26notify_assertion_violationPKciS0_(ptr noundef nonnull @.str.1, i32 noundef 271, ptr noundef nonnull @.str.2)
  tail call void @exit(i32 noundef 114) #18
  unreachable

if.end8:                                          ; preds = %for.end
  ret ptr %call
}